target datalayout = "e-m:e-p270:32:32-p271:32:32-p272:64:64-i64:64-i128:128-f80:128-n8:16:32:64-S128"
target triple = "x86_64-pc-linux-gnu"

%class.Vec3fTo = type { %"class.cv::Vec" }
%"class.cv::Vec" = type { %"class.cv::Matx" }
%"class.cv::Matx" = type { [3 x float] }
%"struct.cv::Matx_ScaleOp" = type { i8 }

; Function Attrs: inlinehint mustprogress nounwind uwtable
define internal noundef float @_ZN2cvL13saturate_castIfEET_d(double noundef %0) #1 {
  %2 = alloca double, align 8
  store double %0, ptr %2, align 8, !tbaa !23
  %3 = load double, ptr %2, align 8, !tbaa !23
  %4 = fptrunc double %3 to float
  ret float %4
}

; Function Attrs: inlinehint mustprogress nounwind uwtable
define internal noundef float @_ZN2cvL13saturate_castIfEET_f(float noundef %0) #1 {
  %2 = alloca float, align 4
  store float %0, ptr %2, align 4, !tbaa !8
  %3 = load float, ptr %2, align 4, !tbaa !8
  ret float %3
}

; Function Attrs: inlinehint mustprogress uwtable
define linkonce_odr hidden void @_ZN2cv4MatxIfLi3ELi1EEC2IdEERKS1_T_NS_12Matx_ScaleOpE(ptr noundef nonnull align 4 dereferenceable(12) %0, ptr noundef nonnull align 4 dereferenceable(12) %1, double noundef %2, ptr noundef %3) unnamed_addr #2 comdat align 2 {
  %5 = alloca ptr, align 8
  %6 = alloca ptr, align 8
  %7 = alloca double, align 8
  %8 = alloca ptr, align 8
  %9 = alloca i32, align 4
  store ptr %0, ptr %5, align 8, !tbaa !87
  store ptr %1, ptr %6, align 8, !tbaa !87
  store double %2, ptr %7, align 8, !tbaa !23
  store ptr %3, ptr %8, align 8, !tbaa !105
  %10 = load ptr, ptr %5, align 8
  call void @llvm.lifetime.start.p0(i64 4, ptr %9) #16
  store i32 0, ptr %9, align 4, !tbaa !12
  br label %11

11:                                               ; preds = %30, %4
  %12 = load i32, ptr %9, align 4, !tbaa !12
  %13 = icmp slt i32 %12, 3
  br i1 %13, label %15, label %14

14:                                               ; preds = %11
  call void @llvm.lifetime.end.p0(i64 4, ptr %9) #16
  br label %33

15:                                               ; preds = %11
  %16 = load ptr, ptr %6, align 8, !tbaa !87
  %17 = getelementptr inbounds nuw %"class.cv::Matx", ptr %16, i32 0, i32 0
  %18 = load i32, ptr %9, align 4, !tbaa !12
  %19 = sext i32 %18 to i64
  %20 = getelementptr inbounds [3 x float], ptr %17, i64 0, i64 %19
  %21 = load float, ptr %20, align 4, !tbaa !8
  %22 = fpext float %21 to double
  %23 = load double, ptr %7, align 8, !tbaa !23
  %24 = fmul double %22, %23
  %25 = call noundef float @_ZN2cvL13saturate_castIfEET_d(double noundef %24)
  %26 = getelementptr inbounds nuw %"class.cv::Matx", ptr %10, i32 0, i32 0
  %27 = load i32, ptr %9, align 4, !tbaa !12
  %28 = sext i32 %27 to i64
  %29 = getelementptr inbounds [3 x float], ptr %26, i64 0, i64 %28
  store float %25, ptr %29, align 4, !tbaa !8
  br label %30

30:                                               ; preds = %15
  %31 = load i32, ptr %9, align 4, !tbaa !12
  %32 = add nsw i32 %31, 1
  store i32 %32, ptr %9, align 4, !tbaa !12
  br label %11, !llvm.loop !108

33:                                               ; preds = %14
  ret void
}

; Function Attrs: inlinehint mustprogress uwtable
define linkonce_odr hidden void @_ZN2cv4MatxIfLi3ELi1EEC2IiEERKS1_T_NS_12Matx_ScaleOpE(ptr noundef nonnull align 4 dereferenceable(12) %0, ptr noundef nonnull align 4 dereferenceable(12) %1, i32 noundef %2, ptr noundef %3) unnamed_addr #2 comdat align 2 {
  %5 = alloca ptr, align 8
  %6 = alloca ptr, align 8
  %7 = alloca i32, align 4
  %8 = alloca ptr, align 8
  %9 = alloca i32, align 4
  store ptr %0, ptr %5, align 8, !tbaa !87
  store ptr %1, ptr %6, align 8, !tbaa !87
  store i32 %2, ptr %7, align 4, !tbaa !12
  store ptr %3, ptr %8, align 8, !tbaa !105
  %10 = load ptr, ptr %5, align 8
  call void @llvm.lifetime.start.p0(i64 4, ptr %9) #16
  store i32 0, ptr %9, align 4, !tbaa !12
  br label %11

11:                                               ; preds = %30, %4
  %12 = load i32, ptr %9, align 4, !tbaa !12
  %13 = icmp slt i32 %12, 3
  br i1 %13, label %15, label %14

14:                                               ; preds = %11
  call void @llvm.lifetime.end.p0(i64 4, ptr %9) #16
  br label %33

15:                                               ; preds = %11
  %16 = load ptr, ptr %6, align 8, !tbaa !87
  %17 = getelementptr inbounds nuw %"class.cv::Matx", ptr %16, i32 0, i32 0
  %18 = load i32, ptr %9, align 4, !tbaa !12
  %19 = sext i32 %18 to i64
  %20 = getelementptr inbounds [3 x float], ptr %17, i64 0, i64 %19
  %21 = load float, ptr %20, align 4, !tbaa !8
  %22 = load i32, ptr %7, align 4, !tbaa !12
  %23 = sitofp i32 %22 to float
  %24 = fmul float %21, %23
  %25 = call noundef float @_ZN2cvL13saturate_castIfEET_f(float noundef %24)
  %26 = getelementptr inbounds nuw %"class.cv::Matx", ptr %10, i32 0, i32 0
  %27 = load i32, ptr %9, align 4, !tbaa !12
  %28 = sext i32 %27 to i64
  %29 = getelementptr inbounds [3 x float], ptr %26, i64 0, i64 %28
  store float %25, ptr %29, align 4, !tbaa !8
  br label %30

30:                                               ; preds = %15
  %31 = load i32, ptr %9, align 4, !tbaa !12
  %32 = add nsw i32 %31, 1
  store i32 %32, ptr %9, align 4, !tbaa !12
  br label %11, !llvm.loop !107

33:                                               ; preds = %14
  ret void
}

; Function Attrs: mustprogress nounwind uwtable
define linkonce_odr hidden void @_ZN2cv12Matx_ScaleOpC2ERKS0_(ptr noundef nonnull align 1 dereferenceable(1) %0, ptr noundef nonnull align 1 dereferenceable(1) %1) unnamed_addr #6 comdat align 2 {
  %3 = alloca ptr, align 8
  %4 = alloca ptr, align 8
  store ptr %0, ptr %3, align 8, !tbaa !105
  store ptr %1, ptr %4, align 8, !tbaa !105
  ret void
}

; Function Attrs: inlinehint mustprogress uwtable
define linkonce_odr hidden void @_ZN2cv3VecIfLi3EEC2IdEERKNS_4MatxIfLi3ELi1EEET_NS_12Matx_ScaleOpE(ptr noundef nonnull align 4 dereferenceable(12) %0, ptr noundef nonnull align 4 dereferenceable(12) %1, double noundef %2, ptr noundef %3) unnamed_addr #2 comdat align 2 {
  %5 = alloca ptr, align 8
  %6 = alloca ptr, align 8
  %7 = alloca double, align 8
  %8 = alloca ptr, align 8
  %9 = alloca %"struct.cv::Matx_ScaleOp", align 1
  store ptr %0, ptr %5, align 8, !tbaa !10
  store ptr %1, ptr %6, align 8, !tbaa !87
  store double %2, ptr %7, align 8, !tbaa !23
  store ptr %3, ptr %8, align 8, !tbaa !105
  %10 = load ptr, ptr %5, align 8
  %11 = load ptr, ptr %6, align 8, !tbaa !87
  %12 = load double, ptr %7, align 8, !tbaa !23
  call void @_ZN2cv12Matx_ScaleOpC2ERKS0_(ptr noundef nonnull align 1 dereferenceable(1) %9, ptr noundef nonnull align 1 dereferenceable(1) %3)
  call void @_ZN2cv4MatxIfLi3ELi1EEC2IdEERKS1_T_NS_12Matx_ScaleOpE(ptr noundef nonnull align 4 dereferenceable(12) %10, ptr noundef nonnull align 4 dereferenceable(12) %11, double noundef %12, ptr noundef %9)
  ret void
}

; Function Attrs: inlinehint mustprogress uwtable
define linkonce_odr hidden void @_ZN2cv3VecIfLi3EEC2IiEERKNS_4MatxIfLi3ELi1EEET_NS_12Matx_ScaleOpE(ptr noundef nonnull align 4 dereferenceable(12) %0, ptr noundef nonnull align 4 dereferenceable(12) %1, i32 noundef %2, ptr noundef %3) unnamed_addr #2 comdat align 2 {
  %5 = alloca ptr, align 8
  %6 = alloca ptr, align 8
  %7 = alloca i32, align 4
  %8 = alloca ptr, align 8
  %9 = alloca %"struct.cv::Matx_ScaleOp", align 1
  store ptr %0, ptr %5, align 8, !tbaa !10
  store ptr %1, ptr %6, align 8, !tbaa !87
  store i32 %2, ptr %7, align 4, !tbaa !12
  store ptr %3, ptr %8, align 8, !tbaa !105
  %10 = load ptr, ptr %5, align 8
  %11 = load ptr, ptr %6, align 8, !tbaa !87
  %12 = load i32, ptr %7, align 4, !tbaa !12
  call void @_ZN2cv12Matx_ScaleOpC2ERKS0_(ptr noundef nonnull align 1 dereferenceable(1) %9, ptr noundef nonnull align 1 dereferenceable(1) %3)
  call void @_ZN2cv4MatxIfLi3ELi1EEC2IiEERKS1_T_NS_12Matx_ScaleOpE(ptr noundef nonnull align 4 dereferenceable(12) %10, ptr noundef nonnull align 4 dereferenceable(12) %11, i32 noundef %12, ptr noundef %9)
  ret void
}

; Function Attrs: mustprogress nounwind uwtable
define linkonce_odr hidden void @_ZN2cv12Matx_ScaleOpC2Ev(ptr noundef nonnull align 1 dereferenceable(1) %0) unnamed_addr #6 comdat align 2 {
  %2 = alloca ptr, align 8
  store ptr %0, ptr %2, align 8, !tbaa !105
  ret void
}

; Function Attrs: inlinehint mustprogress uwtable
define internal void @_ZN2cvdvIfLi3EEENS_3VecIT_XT0_EEERKS3_i(ptr dead_on_unwind noalias writable sret(%"class.cv::Vec") align 4 %0, ptr noundef nonnull align 4 dereferenceable(12) %1, i32 noundef %2) #2 {
  %4 = alloca ptr, align 8
  %5 = alloca ptr, align 8
  %6 = alloca i32, align 4
  %7 = alloca %"struct.cv::Matx_ScaleOp", align 1
  store ptr %0, ptr %4, align 8
  store ptr %1, ptr %5, align 8, !tbaa !10
  store i32 %2, ptr %6, align 4, !tbaa !12
  %8 = load ptr, ptr %5, align 8, !tbaa !10
  %9 = load i32, ptr %6, align 4, !tbaa !12
  %10 = sitofp i32 %9 to double
  %11 = fdiv double 1.000000e+00, %10
  call void @_ZN2cv12Matx_ScaleOpC2Ev(ptr noundef nonnull align 1 dereferenceable(1) %7)
  call void @_ZN2cv3VecIfLi3EEC2IdEERKNS_4MatxIfLi3ELi1EEET_NS_12Matx_ScaleOpE(ptr noundef nonnull align 4 dereferenceable(12) %0, ptr noundef nonnull align 4 dereferenceable(12) %8, double noundef %11, ptr noundef %7)
  ret void
}

; Function Attrs: inlinehint mustprogress uwtable
define internal void @_ZN2cvmlIfLi3EEENS_3VecIT_XT0_EEERKS3_i(ptr dead_on_unwind noalias writable sret(%"class.cv::Vec") align 4 %0, ptr noundef nonnull align 4 dereferenceable(12) %1, i32 noundef %2) #2 {
  %4 = alloca ptr, align 8
  %5 = alloca ptr, align 8
  %6 = alloca i32, align 4
  %7 = alloca %"struct.cv::Matx_ScaleOp", align 1
  store ptr %0, ptr %4, align 8
  store ptr %1, ptr %5, align 8, !tbaa !10
  store i32 %2, ptr %6, align 4, !tbaa !12
  %8 = load ptr, ptr %5, align 8, !tbaa !10
  %9 = load i32, ptr %6, align 4, !tbaa !12
  call void @_ZN2cv12Matx_ScaleOpC2Ev(ptr noundef nonnull align 1 dereferenceable(1) %7)
  call void @_ZN2cv3VecIfLi3EEC2IiEERKNS_4MatxIfLi3ELi1EEET_NS_12Matx_ScaleOpE(ptr noundef nonnull align 4 dereferenceable(12) %0, ptr noundef nonnull align 4 dereferenceable(12) %8, i32 noundef %9, ptr noundef %7)
  ret void
}

; Function Attrs: mustprogress uwtable
define hidden void @_ZN7Vec3fToIhE4makeEi(ptr dead_on_unwind noalias writable sret(%"class.cv::Vec") align 4 %0, ptr noundef nonnull align 4 dereferenceable(12) %1, i32 noundef %2) #0 align 2 {
  %4 = alloca ptr, align 8
  %5 = alloca ptr, align 8
  %6 = alloca i32, align 4
  %7 = alloca %"class.cv::Vec", align 4
  store ptr %0, ptr %4, align 8
  store ptr %1, ptr %5, align 8, !tbaa !3
  store i32 %2, ptr %6, align 4, !tbaa !12
  %8 = load ptr, ptr %5, align 8
  call void @llvm.lifetime.start.p0(i64 12, ptr %7) #16
  %9 = getelementptr inbounds nuw %class.Vec3fTo, ptr %8, i32 0, i32 0
  %10 = load i32, ptr %6, align 4, !tbaa !12
  call void @_ZN2cvmlIfLi3EEENS_3VecIT_XT0_EEERKS3_i(ptr dead_on_unwind writable sret(%"class.cv::Vec") align 4 %7, ptr noundef nonnull align 4 dereferenceable(12) %9, i32 noundef %10)
  %11 = load i32, ptr %6, align 4, !tbaa !12
  call void @_ZN2cvdvIfLi3EEENS_3VecIT_XT0_EEERKS3_i(ptr dead_on_unwind writable sret(%"class.cv::Vec") align 4 %0, ptr noundef nonnull align 4 dereferenceable(12) %7, i32 noundef %11)
  call void @llvm.lifetime.end.p0(i64 12, ptr %7) #16
  ret void
}