; Function Attrs: mustprogress nofree norecurse nosync nounwind memory(argmem: readwrite, inaccessiblemem: readwrite) uwtable
define hidden void @_ZN7Vec3fToIhE4makeEi(ptr dead_on_unwind noalias writable writeonly sret(%"class.cv::Vec") align 4 captures(none) %0, ptr noundef nonnull readonly align 4 captures(none) dereferenceable(12) %1, i32 noundef %2) local_unnamed_addr #2 align 2 {
  %4 = alloca %"class.cv::Vec", align 4
  call void @llvm.lifetime.start.p0(i64 12, ptr nonnull %4) #20
  tail call void @llvm.experimental.noalias.scope.decl(metadata !13)
  %5 = sitofp i32 %2 to float
  br label %6

6:                                                ; preds = %6, %3
  %indvars.iv.i.i.i = phi i64 [ 0, %3 ], [ %indvars.iv.next.i.i.i, %6 ]
  %7 = getelementptr inbounds nuw [3 x float], ptr %1, i64 0, i64 %indvars.iv.i.i.i
  %8 = load float, ptr %7, align 4, !tbaa !3, !noalias !13
  %9 = fmul float %8, %5
  %10 = getelementptr inbounds nuw [3 x float], ptr %4, i64 0, i64 %indvars.iv.i.i.i
  store float %9, ptr %10, align 4, !tbaa !3, !alias.scope !13
  %indvars.iv.next.i.i.i = add nuw nsw i64 %indvars.iv.i.i.i, 1
  %exitcond.not.i.i.i = icmp eq i64 %indvars.iv.next.i.i.i, 3
  br i1 %exitcond.not.i.i.i, label %_ZN2cvmlIfLi3EEENS_3VecIT_XT0_EEERKS3_i.exit, label %6, !llvm.loop !16

_ZN2cvmlIfLi3EEENS_3VecIT_XT0_EEERKS3_i.exit:     ; preds = %6
  tail call void @llvm.experimental.noalias.scope.decl(metadata !17)
  %11 = sitofp i32 %2 to double
  %12 = fdiv double 1.000000e+00, %11
  br label %13

13:                                               ; preds = %13, %_ZN2cvmlIfLi3EEENS_3VecIT_XT0_EEERKS3_i.exit
  %indvars.iv.i.i.i2 = phi i64 [ 0, %_ZN2cvmlIfLi3EEENS_3VecIT_XT0_EEERKS3_i.exit ], [ %indvars.iv.next.i.i.i3, %13 ]
  %14 = getelementptr inbounds nuw [3 x float], ptr %4, i64 0, i64 %indvars.iv.i.i.i2
  %15 = load float, ptr %14, align 4, !tbaa !3, !noalias !17
  %16 = fpext float %15 to double
  %17 = fmul double %12, %16
  %18 = fptrunc double %17 to float
  %19 = getelementptr inbounds nuw [3 x float], ptr %0, i64 0, i64 %indvars.iv.i.i.i2
  store float %18, ptr %19, align 4, !tbaa !3, !alias.scope !17
  %indvars.iv.next.i.i.i3 = add nuw nsw i64 %indvars.iv.i.i.i2, 1
  %exitcond.not.i.i.i4 = icmp eq i64 %indvars.iv.next.i.i.i3, 3
  br i1 %exitcond.not.i.i.i4, label %_ZN2cvdvIfLi3EEENS_3VecIT_XT0_EEERKS3_i.exit, label %13, !llvm.loop !20

_ZN2cvdvIfLi3EEENS_3VecIT_XT0_EEERKS3_i.exit:     ; preds = %13
  call void @llvm.lifetime.end.p0(i64 12, ptr nonnull %4) #20
  ret void
}